; Function Attrs: mustprogress nofree norecurse nosync nounwind memory(readwrite, inaccessiblemem: none) uwtable
define hidden void @_ZN3smt9theory_pb13reset_arg_maxEv(ptr noundef nonnull readonly align 8 captures(none) dereferenceable(968) %0) local_unnamed_addr #10 align 2 {
  %2 = getelementptr inbounds nuw i8, ptr %0, i64 864
  %3 = load ptr, ptr %2, align 8, !tbaa !660
  %4 = icmp eq ptr %3, null
  %5 = getelementptr inbounds i8, ptr %3, i64 -4
  %6 = getelementptr inbounds nuw i8, ptr %0, i64 856
  %7 = load ptr, ptr %6, align 8
  %.fr42 = freeze ptr %7
  %8 = icmp eq ptr %.fr42, null
  %9 = getelementptr inbounds i8, ptr %.fr42, i64 -4
  %10 = getelementptr inbounds nuw i8, ptr %0, i64 952
  %11 = load ptr, ptr %10, align 8
  %.fr = freeze ptr %11
  %12 = icmp eq ptr %.fr, null
  %13 = getelementptr inbounds i8, ptr %.fr, i64 -4
  %brmerge = select i1 %12, i1 true, i1 %4
  br i1 %8, label %.split.us, label %.split

.split.us:                                        ; preds = %1
  br i1 %brmerge, label %.split9.us, label %.split.us.split.split

.split.us.split.split:                            ; preds = %.split.us
  %14 = load i32, ptr %5, align 4, !tbaa !9
  %.not44 = icmp eq i32 %14, 0
  br i1 %.not44, label %.split9.us, label %_ZNK3smt9theory_pb13get_abs_coeffEj.exit.us.lr.ph

_ZNK3smt9theory_pb13get_abs_coeffEj.exit.us.lr.ph: ; preds = %.split.us.split.split
  %15 = load i32, ptr %13, align 4, !tbaa !9
  %16 = icmp sgt i32 %15, 0
  br i1 %16, label %_ZNK3smt9theory_pb13get_abs_coeffEj.exit.us, label %.split9.us

_ZNK3smt9theory_pb13get_abs_coeffEj.exit.usthread-pre-split: ; preds = %_ZN6vectorIjLb0EjE5resetEv.exit.us
  %.pr = load i32, ptr %13, align 4, !tbaa !9
  br label %_ZNK3smt9theory_pb13get_abs_coeffEj.exit.us

_ZNK3smt9theory_pb13get_abs_coeffEj.exit.us:      ; preds = %_ZNK3smt9theory_pb13get_abs_coeffEj.exit.us.lr.ph, %_ZNK3smt9theory_pb13get_abs_coeffEj.exit.usthread-pre-split
  %17 = phi i32 [ %.pr, %_ZNK3smt9theory_pb13get_abs_coeffEj.exit.usthread-pre-split ], [ %15, %_ZNK3smt9theory_pb13get_abs_coeffEj.exit.us.lr.ph ]
  %18 = phi i32 [ %24, %_ZNK3smt9theory_pb13get_abs_coeffEj.exit.usthread-pre-split ], [ %14, %_ZNK3smt9theory_pb13get_abs_coeffEj.exit.us.lr.ph ]
  %.0.us38 = phi i32 [ %25, %_ZNK3smt9theory_pb13get_abs_coeffEj.exit.usthread-pre-split ], [ 0, %_ZNK3smt9theory_pb13get_abs_coeffEj.exit.us.lr.ph ]
  %19 = icmp sgt i32 %17, 0
  br i1 %19, label %20, label %_ZN6vectorIjLb0EjE5resetEv.exit.us

20:                                               ; preds = %_ZNK3smt9theory_pb13get_abs_coeffEj.exit.us
  %21 = load ptr, ptr %.fr, align 8, !tbaa !660
  %.not.i.us = icmp eq ptr %21, null
  br i1 %.not.i.us, label %_ZN6vectorIjLb0EjE5resetEv.exit.us, label %22

22:                                               ; preds = %20
  %23 = getelementptr inbounds i8, ptr %21, i64 -4
  store i32 0, ptr %23, align 4, !tbaa !9
  %.pre50 = load i32, ptr %5, align 4, !tbaa !9
  br label %_ZN6vectorIjLb0EjE5resetEv.exit.us

_ZN6vectorIjLb0EjE5resetEv.exit.us:               ; preds = %22, %20, %_ZNK3smt9theory_pb13get_abs_coeffEj.exit.us
  %24 = phi i32 [ %.pre50, %22 ], [ %18, %20 ], [ %18, %_ZNK3smt9theory_pb13get_abs_coeffEj.exit.us ]
  %25 = add nuw i32 %.0.us38, 1
  %26 = icmp ult i32 %25, %24
  br i1 %26, label %_ZNK3smt9theory_pb13get_abs_coeffEj.exit.usthread-pre-split, label %.split9.us, !llvm.loop !873

.split:                                           ; preds = %1
  br i1 %brmerge, label %.split9.us, label %.split.split.split

.split.split.split:                               ; preds = %.split
  %27 = load i32, ptr %5, align 4, !tbaa !9
  %.not = icmp eq i32 %27, 0
  br i1 %.not, label %.split9.us, label %_ZNK6vectorIiLb0EjE3getEjRKi.exit.i.i

.split9.us:                                       ; preds = %_ZN6vectorIjLb0EjE5resetEv.exit, %_ZN6vectorIjLb0EjE5resetEv.exit.us, %.split, %.split.us, %_ZNK3smt9theory_pb13get_abs_coeffEj.exit.us.lr.ph, %.split.split.split, %.split.us.split.split
  ret void

_ZNK6vectorIiLb0EjE3getEjRKi.exit.i.i:            ; preds = %.split.split.split, %_ZN6vectorIjLb0EjE5resetEv.exit
  %28 = phi i32 [ %43, %_ZN6vectorIjLb0EjE5resetEv.exit ], [ %27, %.split.split.split ]
  %indvars.iv = phi i64 [ %indvars.iv.next, %_ZN6vectorIjLb0EjE5resetEv.exit ], [ 0, %.split.split.split ]
  %29 = getelementptr inbounds nuw i32, ptr %3, i64 %indvars.iv
  %30 = load i32, ptr %29, align 4, !tbaa !9
  %31 = load i32, ptr %9, align 4, !tbaa !9
  %.not.i.i.i = icmp ult i32 %30, %31
  br i1 %.not.i.i.i, label %_ZNK3smt9theory_pb9get_coeffEj.exit.i, label %_ZNK3smt9theory_pb13get_abs_coeffEj.exit

_ZNK3smt9theory_pb9get_coeffEj.exit.i:            ; preds = %_ZNK6vectorIiLb0EjE3getEjRKi.exit.i.i
  %32 = zext i32 %30 to i64
  %33 = getelementptr inbounds nuw i32, ptr %.fr42, i64 %32
  %.then.val.i.i = load i32, ptr %33, align 4, !tbaa !9
  %.then.val.i.fr.i = freeze i32 %.then.val.i.i
  %spec.select.i = tail call i32 @llvm.abs.i32(i32 %.then.val.i.fr.i, i1 true)
  br label %_ZNK3smt9theory_pb13get_abs_coeffEj.exit

_ZNK3smt9theory_pb13get_abs_coeffEj.exit:         ; preds = %_ZNK6vectorIiLb0EjE3getEjRKi.exit.i.i, %_ZNK3smt9theory_pb9get_coeffEj.exit.i
  %34 = phi i32 [ 0, %_ZNK6vectorIiLb0EjE3getEjRKi.exit.i.i ], [ %spec.select.i, %_ZNK3smt9theory_pb9get_coeffEj.exit.i ]
  %35 = load i32, ptr %13, align 4, !tbaa !9
  %36 = icmp sgt i32 %35, %34
  br i1 %36, label %37, label %_ZN6vectorIjLb0EjE5resetEv.exit

37:                                               ; preds = %_ZNK3smt9theory_pb13get_abs_coeffEj.exit
  %38 = zext nneg i32 %34 to i64
  %39 = getelementptr inbounds nuw %class.svector.5, ptr %.fr, i64 %38
  %40 = load ptr, ptr %39, align 8, !tbaa !660
  %.not.i = icmp eq ptr %40, null
  br i1 %.not.i, label %_ZN6vectorIjLb0EjE5resetEv.exit, label %41

41:                                               ; preds = %37
  %42 = getelementptr inbounds i8, ptr %40, i64 -4
  store i32 0, ptr %42, align 4, !tbaa !9
  %.pre = load i32, ptr %5, align 4, !tbaa !9
  br label %_ZN6vectorIjLb0EjE5resetEv.exit

_ZN6vectorIjLb0EjE5resetEv.exit:                  ; preds = %41, %37, %_ZNK3smt9theory_pb13get_abs_coeffEj.exit
  %43 = phi i32 [ %.pre, %41 ], [ %28, %37 ], [ %28, %_ZNK3smt9theory_pb13get_abs_coeffEj.exit ]
  %indvars.iv.next = add nuw nsw i64 %indvars.iv, 1
  %44 = zext i32 %43 to i64
  %45 = icmp samesign ult i64 %indvars.iv.next, %44
  br i1 %45, label %_ZNK6vectorIiLb0EjE3getEjRKi.exit.i.i, label %.split9.us, !llvm.loop !875
}